target datalayout = "e-m:e-p270:32:32-p271:32:32-p272:64:64-i64:64-i128:128-f80:128-n8:16:32:64-S128"
target triple = "x86_64-pc-linux-gnu"

%struct.llama_sampler = type { ptr, ptr }
%struct.llama_token_data = type { i32, float, float }
%struct.llama_token_data_array = type { ptr, i64, i64, i8 }
%"class.std::mersenne_twister_engine" = type { [624 x i64], i64 }
%struct.llama_sampler_mirostat = type { i32, i32, i32, float, float, i32, float, %"class.std::mersenne_twister_engine" }

; Function Attrs: inlinehint mustprogress nounwind uwtable
define linkonce_odr noundef nonnull align 4 dereferenceable(4) ptr @_ZSt3maxIiERKT_S2_S2_(ptr noundef nonnull align 4 dereferenceable(4) %0, ptr noundef nonnull align 4 dereferenceable(4) %1) #9 comdat {
  %3 = alloca ptr, align 8
  %4 = alloca ptr, align 8
  %5 = alloca ptr, align 8
  store ptr %0, ptr %4, align 8, !tbaa !135
  store ptr %1, ptr %5, align 8, !tbaa !135
  %6 = load ptr, ptr %4, align 8, !tbaa !135
  %7 = load i32, ptr %6, align 4, !tbaa !16
  %8 = load ptr, ptr %5, align 8, !tbaa !135
  %9 = load i32, ptr %8, align 4, !tbaa !16
  %10 = icmp slt i32 %7, %9
  br i1 %10, label %11, label %13

11:                                               ; preds = %2
  %12 = load ptr, ptr %5, align 8, !tbaa !135
  store ptr %12, ptr %3, align 8
  br label %15

13:                                               ; preds = %2
  %14 = load ptr, ptr %4, align 8, !tbaa !135
  store ptr %14, ptr %3, align 8
  br label %15

15:                                               ; preds = %13, %11
  %16 = load ptr, ptr %3, align 8
  ret ptr %16
}

; Function Attrs: mustprogress uwtable
define internal void @_ZL28llama_sampler_mirostat_applyP13llama_samplerP22llama_token_data_array(ptr noundef %0, ptr noundef %1) #0 {
  %3 = alloca ptr, align 8
  %4 = alloca ptr, align 8
  %5 = alloca ptr, align 8
  %6 = alloca float, align 4
  %7 = alloca float, align 4
  %8 = alloca float, align 4
  %9 = alloca i64, align 8
  %10 = alloca float, align 4
  %11 = alloca float, align 4
  %12 = alloca float, align 4
  %13 = alloca float, align 4
  %14 = alloca i32, align 4
  %15 = alloca i32, align 4
  %16 = alloca i32, align 4
  %17 = alloca float, align 4
  %18 = alloca float, align 4
  store ptr %0, ptr %3, align 8, !tbaa !12
  store ptr %1, ptr %4, align 8, !tbaa !19
  call void @llvm.lifetime.start.p0(i64 8, ptr %5) #14
  %19 = load ptr, ptr %3, align 8, !tbaa !12
  %20 = getelementptr inbounds nuw %struct.llama_sampler, ptr %19, i32 0, i32 1
  %21 = load ptr, ptr %20, align 8, !tbaa !11
  store ptr %21, ptr %5, align 8, !tbaa !555
  %22 = load ptr, ptr %4, align 8, !tbaa !19
  call void @_ZL26llama_sampler_softmax_implP22llama_token_data_array(ptr noundef %22)
  call void @llvm.lifetime.start.p0(i64 4, ptr %6) #14
  store float 0.000000e+00, ptr %6, align 4, !tbaa !36
  call void @llvm.lifetime.start.p0(i64 4, ptr %7) #14
  store float 0.000000e+00, ptr %7, align 4, !tbaa !36
  call void @llvm.lifetime.start.p0(i64 4, ptr %8) #14
  store float 0.000000e+00, ptr %8, align 4, !tbaa !36
  call void @llvm.lifetime.start.p0(i64 8, ptr %9) #14
  store i64 0, ptr %9, align 8, !tbaa !51
  br label %23

23:                                               ; preds = %75, %2
  %24 = load i64, ptr %9, align 8, !tbaa !51
  %25 = load ptr, ptr %5, align 8, !tbaa !555
  %26 = getelementptr inbounds nuw %struct.llama_sampler_mirostat, ptr %25, i32 0, i32 5
  %27 = load i32, ptr %26, align 4, !tbaa !123
  %28 = sub nsw i32 %27, 1
  %29 = sext i32 %28 to i64
  %30 = icmp ult i64 %24, %29
  br i1 %30, label %31, label %38

31:                                               ; preds = %23
  %32 = load i64, ptr %9, align 8, !tbaa !51
  %33 = load ptr, ptr %4, align 8, !tbaa !19
  %34 = getelementptr inbounds nuw %struct.llama_token_data_array, ptr %33, i32 0, i32 1
  %35 = load i64, ptr %34, align 8, !tbaa !46
  %36 = sub i64 %35, 1
  %37 = icmp ult i64 %32, %36
  br label %38

38:                                               ; preds = %31, %23
  %39 = phi i1 [ false, %23 ], [ %37, %31 ]
  br i1 %39, label %41, label %40

40:                                               ; preds = %38
  call void @llvm.lifetime.end.p0(i64 8, ptr %9) #14
  br label %78

41:                                               ; preds = %38
  call void @llvm.lifetime.start.p0(i64 4, ptr %10) #14
  %42 = load i64, ptr %9, align 8, !tbaa !51
  %43 = add i64 %42, 2
  %44 = uitofp i64 %43 to float
  %45 = load i64, ptr %9, align 8, !tbaa !51
  %46 = add i64 %45, 1
  %47 = uitofp i64 %46 to float
  %48 = fdiv float %44, %47
  %49 = call float @logf(float noundef %48) #14, !tbaa !16
  store float %49, ptr %10, align 4, !tbaa !36
  call void @llvm.lifetime.start.p0(i64 4, ptr %11) #14
  %50 = load ptr, ptr %4, align 8, !tbaa !19
  %51 = getelementptr inbounds nuw %struct.llama_token_data_array, ptr %50, i32 0, i32 0
  %52 = load ptr, ptr %51, align 8, !tbaa !41
  %53 = load i64, ptr %9, align 8, !tbaa !51
  %54 = getelementptr inbounds nuw %struct.llama_token_data, ptr %52, i64 %53
  %55 = getelementptr inbounds nuw %struct.llama_token_data, ptr %54, i32 0, i32 2
  %56 = load float, ptr %55, align 4, !tbaa !38
  %57 = load ptr, ptr %4, align 8, !tbaa !19
  %58 = getelementptr inbounds nuw %struct.llama_token_data_array, ptr %57, i32 0, i32 0
  %59 = load ptr, ptr %58, align 8, !tbaa !41
  %60 = load i64, ptr %9, align 8, !tbaa !51
  %61 = add i64 %60, 1
  %62 = getelementptr inbounds nuw %struct.llama_token_data, ptr %59, i64 %61
  %63 = getelementptr inbounds nuw %struct.llama_token_data, ptr %62, i32 0, i32 2
  %64 = load float, ptr %63, align 4, !tbaa !38
  %65 = fdiv float %56, %64
  %66 = call float @logf(float noundef %65) #14, !tbaa !16
  store float %66, ptr %11, align 4, !tbaa !36
  %67 = load float, ptr %10, align 4, !tbaa !36
  %68 = load float, ptr %11, align 4, !tbaa !36
  %69 = load float, ptr %7, align 4, !tbaa !36
  %70 = call float @llvm.fmuladd.f32(float %67, float %68, float %69)
  store float %70, ptr %7, align 4, !tbaa !36
  %71 = load float, ptr %10, align 4, !tbaa !36
  %72 = load float, ptr %10, align 4, !tbaa !36
  %73 = load float, ptr %8, align 4, !tbaa !36
  %74 = call float @llvm.fmuladd.f32(float %71, float %72, float %73)
  store float %74, ptr %8, align 4, !tbaa !36
  call void @llvm.lifetime.end.p0(i64 4, ptr %11) #14
  call void @llvm.lifetime.end.p0(i64 4, ptr %10) #14
  br label %75

75:                                               ; preds = %41
  %76 = load i64, ptr %9, align 8, !tbaa !51
  %77 = add i64 %76, 1
  store i64 %77, ptr %9, align 8, !tbaa !51
  br label %23, !llvm.loop !557

78:                                               ; preds = %40
  %79 = load float, ptr %7, align 4, !tbaa !36
  %80 = load float, ptr %8, align 4, !tbaa !36
  %81 = fdiv float %79, %80
  store float %81, ptr %6, align 4, !tbaa !36
  call void @llvm.lifetime.start.p0(i64 4, ptr %12) #14
  %82 = load float, ptr %6, align 4, !tbaa !36
  %83 = fsub float %82, 1.000000e+00
  store float %83, ptr %12, align 4, !tbaa !36
  call void @llvm.lifetime.start.p0(i64 4, ptr %13) #14
  %84 = load float, ptr %12, align 4, !tbaa !36
  %85 = load ptr, ptr %5, align 8, !tbaa !555
  %86 = getelementptr inbounds nuw %struct.llama_sampler_mirostat, ptr %85, i32 0, i32 6
  %87 = load float, ptr %86, align 8, !tbaa !124
  %88 = call float @powf(float noundef 2.000000e+00, float noundef %87) #14, !tbaa !16
  %89 = fmul float %84, %88
  %90 = load ptr, ptr %5, align 8, !tbaa !555
  %91 = getelementptr inbounds nuw %struct.llama_sampler_mirostat, ptr %90, i32 0, i32 0
  %92 = load i32, ptr %91, align 8, !tbaa !117
  %93 = sitofp i32 %92 to float
  %94 = load float, ptr %12, align 4, !tbaa !36
  %95 = fneg float %94
  %96 = call float @powf(float noundef %93, float noundef %95) #14, !tbaa !16
  %97 = fsub float 1.000000e+00, %96
  %98 = fdiv float %89, %97
  %99 = load float, ptr %6, align 4, !tbaa !36
  %100 = fdiv float 1.000000e+00, %99
  %101 = call float @powf(float noundef %98, float noundef %100) #14, !tbaa !16
  store float %101, ptr %13, align 4, !tbaa !36
  %102 = load ptr, ptr %4, align 8, !tbaa !19
  call void @llvm.lifetime.start.p0(i64 4, ptr %14) #14
  %103 = load float, ptr %13, align 4, !tbaa !36
  %104 = fptosi float %103 to i32
  store i32 %104, ptr %14, align 4, !tbaa !16
  call void @llvm.lifetime.start.p0(i64 4, ptr %15) #14
  store i32 1, ptr %15, align 4, !tbaa !16
  %105 = call noundef nonnull align 4 dereferenceable(4) ptr @_ZSt3maxIiERKT_S2_S2_(ptr noundef nonnull align 4 dereferenceable(4) %14, ptr noundef nonnull align 4 dereferenceable(4) %15)
  %106 = load i32, ptr %105, align 4, !tbaa !16
  call void @_ZL24llama_sampler_top_k_implP22llama_token_data_arrayi(ptr noundef %102, i32 noundef %106)
  call void @llvm.lifetime.end.p0(i64 4, ptr %15) #14
  call void @llvm.lifetime.end.p0(i64 4, ptr %14) #14
  %107 = load ptr, ptr %4, align 8, !tbaa !19
  call void @_ZL26llama_sampler_softmax_implP22llama_token_data_array(ptr noundef %107)
  call void @llvm.lifetime.start.p0(i64 4, ptr %16) #14
  %108 = load ptr, ptr %4, align 8, !tbaa !19
  %109 = load ptr, ptr %5, align 8, !tbaa !555
  %110 = getelementptr inbounds nuw %struct.llama_sampler_mirostat, ptr %109, i32 0, i32 7
  %111 = call noundef i32 @_ZL17llama_sample_distP22llama_token_data_arrayRSt23mersenne_twister_engineImLm32ELm624ELm397ELm31ELm2567483615ELm11ELm4294967295ELm7ELm2636928640ELm15ELm4022730752ELm18ELm1812433253EE(ptr noundef %108, ptr noundef nonnull align 8 dereferenceable(5000) %110)
  store i32 %111, ptr %16, align 4, !tbaa !16
  %112 = load i32, ptr %16, align 4, !tbaa !16
  %113 = sext i32 %112 to i64
  %114 = load ptr, ptr %4, align 8, !tbaa !19
  %115 = getelementptr inbounds nuw %struct.llama_token_data_array, ptr %114, i32 0, i32 2
  store i64 %113, ptr %115, align 8, !tbaa !47
  call void @llvm.lifetime.start.p0(i64 4, ptr %17) #14
  %116 = load ptr, ptr %4, align 8, !tbaa !19
  %117 = getelementptr inbounds nuw %struct.llama_token_data_array, ptr %116, i32 0, i32 0
  %118 = load ptr, ptr %117, align 8, !tbaa !41
  %119 = load i32, ptr %16, align 4, !tbaa !16
  %120 = sext i32 %119 to i64
  %121 = getelementptr inbounds %struct.llama_token_data, ptr %118, i64 %120
  %122 = getelementptr inbounds nuw %struct.llama_token_data, ptr %121, i32 0, i32 2
  %123 = load float, ptr %122, align 4, !tbaa !38
  %124 = call float @log2f(float noundef %123) #14, !tbaa !16
  %125 = fneg float %124
  store float %125, ptr %17, align 4, !tbaa !36
  call void @llvm.lifetime.start.p0(i64 4, ptr %18) #14
  %126 = load float, ptr %17, align 4, !tbaa !36
  %127 = load ptr, ptr %5, align 8, !tbaa !555
  %128 = getelementptr inbounds nuw %struct.llama_sampler_mirostat, ptr %127, i32 0, i32 3
  %129 = load float, ptr %128, align 4, !tbaa !121
  %130 = fsub float %126, %129
  store float %130, ptr %18, align 4, !tbaa !36
  %131 = load ptr, ptr %5, align 8, !tbaa !555
  %132 = getelementptr inbounds nuw %struct.llama_sampler_mirostat, ptr %131, i32 0, i32 6
  %133 = load float, ptr %132, align 8, !tbaa !124
  %134 = load ptr, ptr %5, align 8, !tbaa !555
  %135 = getelementptr inbounds nuw %struct.llama_sampler_mirostat, ptr %134, i32 0, i32 4
  %136 = load float, ptr %135, align 8, !tbaa !122
  %137 = load float, ptr %18, align 4, !tbaa !36
  %138 = fneg float %136
  %139 = call float @llvm.fmuladd.f32(float %138, float %137, float %133)
  %140 = load ptr, ptr %5, align 8, !tbaa !555
  %141 = getelementptr inbounds nuw %struct.llama_sampler_mirostat, ptr %140, i32 0, i32 6
  store float %139, ptr %141, align 8, !tbaa !124
  call void @llvm.lifetime.end.p0(i64 4, ptr %18) #14
  call void @llvm.lifetime.end.p0(i64 4, ptr %17) #14
  call void @llvm.lifetime.end.p0(i64 4, ptr %16) #14
  call void @llvm.lifetime.end.p0(i64 4, ptr %13) #14
  call void @llvm.lifetime.end.p0(i64 4, ptr %12) #14
  call void @llvm.lifetime.end.p0(i64 4, ptr %8) #14
  call void @llvm.lifetime.end.p0(i64 4, ptr %7) #14
  call void @llvm.lifetime.end.p0(i64 4, ptr %6) #14
  call void @llvm.lifetime.end.p0(i64 8, ptr %5) #14
  ret void
}