; Function Attrs: mustprogress uwtable
define internal void @_ZL28llama_sampler_mirostat_applyP13llama_samplerP22llama_token_data_array(ptr noundef readonly captures(none) %0, ptr noundef captures(none) %1) #0 {
  %3 = getelementptr inbounds nuw i8, ptr %0, i64 8
  %4 = load ptr, ptr %3, align 8, !tbaa !9
  tail call fastcc void @_ZL26llama_sampler_softmax_implP22llama_token_data_array(ptr noundef %1)
  %5 = getelementptr inbounds nuw i8, ptr %4, i64 20
  %6 = load i32, ptr %5, align 4, !tbaa !88
  %.not = icmp eq i32 %6, 1
  br i1 %.not, label %.critedge, label %.lr.ph

.lr.ph:                                           ; preds = %2
  %7 = getelementptr inbounds nuw i8, ptr %1, i64 8
  %8 = load i64, ptr %7, align 8, !tbaa !22
  %9 = add i64 %8, -1
  br label %10

10:                                               ; preds = %.lr.ph, %44
  %.049 = phi float [ 0.000000e+00, %.lr.ph ], [ %58, %44 ]
  %.04148 = phi float [ 0.000000e+00, %.lr.ph ], [ %59, %44 ]
  %.04247 = phi i64 [ 0, %.lr.ph ], [ %47, %44 ]
  %exitcond.not = icmp eq i64 %.04247, %9
  br i1 %exitcond.not, label %.critedge.loopexit, label %44

.critedge.loopexit:                               ; preds = %44, %10
  %.041.lcssa.ph = phi float [ %.04148, %10 ], [ %59, %44 ]
  %.0.lcssa.ph = phi float [ %.049, %10 ], [ %58, %44 ]
  %11 = fdiv float %.0.lcssa.ph, %.041.lcssa.ph
  br label %.critedge

.critedge:                                        ; preds = %.critedge.loopexit, %2
  %12 = phi float [ 0x7FF8000000000000, %2 ], [ %11, %.critedge.loopexit ]
  %13 = fadd float %12, -1.000000e+00
  %14 = getelementptr inbounds nuw i8, ptr %4, i64 24
  %15 = load float, ptr %14, align 8, !tbaa !89
  %exp2f = tail call float @exp2f(float %15)
  %16 = fmul float %13, %exp2f
  %17 = load i32, ptr %4, align 8, !tbaa !82
  %18 = sitofp i32 %17 to float
  %19 = fneg float %13
  %20 = tail call float @powf(float noundef %18, float noundef %19) #33, !tbaa !27
  %21 = fsub float 1.000000e+00, %20
  %22 = fdiv float %16, %21
  %23 = fdiv float 1.000000e+00, %12
  %24 = tail call float @powf(float noundef %22, float noundef %23) #33, !tbaa !27
  %25 = fptosi float %24 to i32
  %.sroa.speculated = tail call i32 @llvm.smax.i32(i32 %25, i32 1)
  tail call fastcc void @_ZL24llama_sampler_top_k_implP22llama_token_data_arrayi(ptr noundef %1, i32 noundef %.sroa.speculated)
  tail call fastcc void @_ZL26llama_sampler_softmax_implP22llama_token_data_array(ptr noundef %1)
  %26 = getelementptr inbounds nuw i8, ptr %4, i64 32
  %.val = load ptr, ptr %1, align 8, !tbaa !17
  %27 = getelementptr i8, ptr %1, i64 8
  %.val43 = load i64, ptr %27, align 8, !tbaa !22
  %28 = tail call fastcc noundef i32 @_ZL17llama_sample_distP22llama_token_data_arrayRSt23mersenne_twister_engineImLm32ELm624ELm397ELm31ELm2567483615ELm11ELm4294967295ELm7ELm2636928640ELm15ELm4022730752ELm18ELm1812433253EE(ptr %.val, i64 %.val43, ptr noundef nonnull align 8 dereferenceable(5000) %26)
  %29 = sext i32 %28 to i64
  %30 = getelementptr inbounds nuw i8, ptr %1, i64 16
  store i64 %29, ptr %30, align 8, !tbaa !23
  %31 = load ptr, ptr %1, align 8, !tbaa !17
  %32 = getelementptr inbounds %struct.llama_token_data, ptr %31, i64 %29, i32 2
  %33 = load float, ptr %32, align 4, !tbaa !216
  %34 = tail call float @log2f(float noundef %33) #33, !tbaa !27
  %35 = fneg float %34
  %36 = getelementptr inbounds nuw i8, ptr %4, i64 12
  %37 = load float, ptr %36, align 4, !tbaa !86
  %38 = fsub float %35, %37
  %39 = load float, ptr %14, align 8, !tbaa !89
  %40 = getelementptr inbounds nuw i8, ptr %4, i64 16
  %41 = load float, ptr %40, align 8, !tbaa !87
  %42 = fneg float %41
  %43 = tail call float @llvm.fmuladd.f32(float %42, float %38, float %39)
  store float %43, ptr %14, align 8, !tbaa !89
  ret void

44:                                               ; preds = %10
  %45 = add i64 %.04247, 2
  %46 = uitofp i64 %45 to float
  %47 = add nuw i64 %.04247, 1
  %48 = uitofp i64 %47 to float
  %49 = fdiv float %46, %48
  %50 = tail call float @logf(float noundef %49) #33, !tbaa !27
  %51 = load ptr, ptr %1, align 8, !tbaa !17
  %52 = getelementptr inbounds nuw %struct.llama_token_data, ptr %51, i64 %.04247, i32 2
  %53 = load float, ptr %52, align 4, !tbaa !216
  %54 = getelementptr inbounds nuw %struct.llama_token_data, ptr %51, i64 %47, i32 2
  %55 = load float, ptr %54, align 4, !tbaa !216
  %56 = fdiv float %53, %55
  %57 = tail call float @logf(float noundef %56) #33, !tbaa !27
  %58 = tail call float @llvm.fmuladd.f32(float %50, float %57, float %.049)
  %59 = tail call float @llvm.fmuladd.f32(float %50, float %50, float %.04148)
  %60 = load i32, ptr %5, align 4, !tbaa !88
  %61 = add nsw i32 %60, -1
  %62 = sext i32 %61 to i64
  %63 = icmp ult i64 %47, %62
  br i1 %63, label %10, label %.critedge.loopexit, !llvm.loop !303
}